target datalayout = "e-m:e-p270:32:32-p271:32:32-p272:64:64-i64:64-i128:128-f80:128-n8:16:32:64-S128"
target triple = "x86_64-pc-linux-gnu"

%struct.dlist_node = type { ptr, ptr }
%struct.GenerationBlock = type { %struct.dlist_node, ptr, i64, i32, i32, ptr, ptr }
%struct.Node = type { i32 }
%struct.MemoryChunk = type { i64 }

@.str.2 = private unnamed_addr constant [13 x i8] c"generation.c\00", align 1
@.str.3 = private unnamed_addr constant [41 x i8] c"could not find block containing chunk %p\00", align 1
@__func__.GenerationRealloc = private unnamed_addr constant [18 x i8] c"GenerationRealloc\00", align 1

; Function Attrs: inlinehint nounwind uwtable
define internal i64 @MemoryChunkGetValue(ptr noundef %0) #5 {
  %2 = alloca ptr, align 8
  store ptr %0, ptr %2, align 8
  %3 = load ptr, ptr %2, align 8
  %4 = getelementptr inbounds nuw %struct.MemoryChunk, ptr %3, i32 0, i32 0
  %5 = load i64, ptr %4, align 8
  %6 = lshr i64 %5, 5
  %7 = and i64 %6, 1073741823
  ret i64 %7
}

; Function Attrs: inlinehint nounwind uwtable
define internal ptr @MemoryChunkGetBlock(ptr noundef %0) #5 {
  %2 = alloca ptr, align 8
  store ptr %0, ptr %2, align 8
  %3 = load ptr, ptr %2, align 8
  %4 = load ptr, ptr %2, align 8
  %5 = getelementptr inbounds nuw %struct.MemoryChunk, ptr %4, i32 0, i32 0
  %6 = load i64, ptr %5, align 8
  %7 = lshr i64 %6, 34
  %8 = and i64 %7, 1073741822
  %9 = sub i64 0, %8
  %10 = getelementptr inbounds i8, ptr %3, i64 %9
  ret ptr %10
}

; Function Attrs: inlinehint nounwind uwtable
define internal zeroext i1 @MemoryChunkIsExternal(ptr noundef %0) #5 {
  %2 = alloca ptr, align 8
  store ptr %0, ptr %2, align 8
  %3 = load ptr, ptr %2, align 8
  %4 = getelementptr inbounds nuw %struct.MemoryChunk, ptr %3, i32 0, i32 0
  %5 = load i64, ptr %4, align 8
  %6 = and i64 %5, 16
  %7 = icmp ne i64 %6, 0
  ret i1 %7
}

; Function Attrs: nounwind uwtable
define dso_local ptr @GenerationRealloc(ptr noundef %0, i64 noundef %1, i32 noundef %2) #0 {
  %4 = alloca ptr, align 8
  %5 = alloca ptr, align 8
  %6 = alloca i64, align 8
  %7 = alloca i32, align 4
  %8 = alloca ptr, align 8
  %9 = alloca ptr, align 8
  %10 = alloca ptr, align 8
  %11 = alloca ptr, align 8
  %12 = alloca i64, align 8
  %13 = alloca i32, align 4
  store ptr %0, ptr %5, align 8
  store i64 %1, ptr %6, align 8
  store i32 %2, ptr %7, align 4
  call void @llvm.lifetime.start.p0(i64 8, ptr %8) #12
  %14 = load ptr, ptr %5, align 8
  %15 = getelementptr inbounds i8, ptr %14, i64 -8
  store ptr %15, ptr %8, align 8
  call void @llvm.lifetime.start.p0(i64 8, ptr %9) #12
  call void @llvm.lifetime.start.p0(i64 8, ptr %10) #12
  call void @llvm.lifetime.start.p0(i64 8, ptr %11) #12
  call void @llvm.lifetime.start.p0(i64 8, ptr %12) #12
  br label %16

16:                                               ; preds = %3
  br label %17

17:                                               ; preds = %16
  br label %18

18:                                               ; preds = %17
  %19 = load ptr, ptr %8, align 8
  %20 = call zeroext i1 @MemoryChunkIsExternal(ptr noundef %19)
  br i1 %20, label %21, label %58

21:                                               ; preds = %18
  %22 = load ptr, ptr %8, align 8
  %23 = getelementptr inbounds i8, ptr %22, i64 -56
  store ptr %23, ptr %10, align 8
  %24 = load ptr, ptr %10, align 8
  %25 = icmp ne ptr %24, null
  br i1 %25, label %26, label %38

26:                                               ; preds = %21
  %27 = load ptr, ptr %10, align 8
  %28 = getelementptr inbounds nuw %struct.GenerationBlock, ptr %27, i32 0, i32 1
  %29 = load ptr, ptr %28, align 8
  %30 = icmp ne ptr %29, null
  br i1 %30, label %31, label %38

31:                                               ; preds = %26
  %32 = load ptr, ptr %10, align 8
  %33 = getelementptr inbounds nuw %struct.GenerationBlock, ptr %32, i32 0, i32 1
  %34 = load ptr, ptr %33, align 8
  %35 = getelementptr inbounds nuw %struct.Node, ptr %34, i32 0, i32 0
  %36 = load i32, ptr %35, align 4
  %37 = icmp eq i32 %36, 474
  br i1 %37, label %50, label %38

38:                                               ; preds = %31, %26, %21
  br label %39

39:                                               ; preds = %38
  br i1 true, label %40, label %42

40:                                               ; preds = %39
  %41 = call zeroext i1 @errstart_cold(i32 noundef 21, ptr noundef null) #14
  br i1 %41, label %44, label %47

42:                                               ; preds = %39
  %43 = call zeroext i1 @errstart(i32 noundef 21, ptr noundef null)
  br i1 %43, label %44, label %47

44:                                               ; preds = %42, %40
  %45 = load ptr, ptr %8, align 8
  %46 = call i32 (ptr, ...) @errmsg_internal(ptr noundef @.str.3, ptr noundef %45)
  call void @errfinish(ptr noundef @.str.2, i32 noundef 820, ptr noundef @__func__.GenerationRealloc)
  br label %47

47:                                               ; preds = %44, %42, %40
  unreachable

48:                                               ; No predecessors!
  br label %49

49:                                               ; preds = %48
  br label %50

50:                                               ; preds = %49, %31
  %51 = load ptr, ptr %10, align 8
  %52 = getelementptr inbounds nuw %struct.GenerationBlock, ptr %51, i32 0, i32 6
  %53 = load ptr, ptr %52, align 8
  %54 = load ptr, ptr %5, align 8
  %55 = ptrtoint ptr %53 to i64
  %56 = ptrtoint ptr %54 to i64
  %57 = sub i64 %55, %56
  store i64 %57, ptr %12, align 8
  br label %63

58:                                               ; preds = %18
  %59 = load ptr, ptr %8, align 8
  %60 = call ptr @MemoryChunkGetBlock(ptr noundef %59)
  store ptr %60, ptr %10, align 8
  %61 = load ptr, ptr %8, align 8
  %62 = call i64 @MemoryChunkGetValue(ptr noundef %61)
  store i64 %62, ptr %12, align 8
  br label %63

63:                                               ; preds = %58, %50
  %64 = load ptr, ptr %10, align 8
  %65 = getelementptr inbounds nuw %struct.GenerationBlock, ptr %64, i32 0, i32 1
  %66 = load ptr, ptr %65, align 8
  store ptr %66, ptr %9, align 8
  %67 = load i64, ptr %12, align 8
  %68 = load i64, ptr %6, align 8
  %69 = icmp uge i64 %67, %68
  br i1 %69, label %70, label %81

70:                                               ; preds = %63
  br label %71

71:                                               ; preds = %70
  br label %72

72:                                               ; preds = %71
  br label %73

73:                                               ; preds = %72
  br label %74

74:                                               ; preds = %73
  br label %75

75:                                               ; preds = %74
  br label %76

76:                                               ; preds = %75
  br label %77

77:                                               ; preds = %76
  br label %78

78:                                               ; preds = %77
  br label %79

79:                                               ; preds = %78
  %80 = load ptr, ptr %5, align 8
  store ptr %80, ptr %4, align 8
  store i32 1, ptr %13, align 4
  br label %108

81:                                               ; preds = %63
  %82 = load ptr, ptr %9, align 8
  %83 = load i64, ptr %6, align 8
  %84 = load i32, ptr %7, align 4
  %85 = call ptr @GenerationAlloc(ptr noundef %82, i64 noundef %83, i32 noundef %84)
  store ptr %85, ptr %11, align 8
  %86 = load ptr, ptr %11, align 8
  %87 = icmp eq ptr %86, null
  br i1 %87, label %88, label %96

88:                                               ; preds = %81
  br label %89

89:                                               ; preds = %88
  br label %90

90:                                               ; preds = %89
  br label %91

91:                                               ; preds = %90
  %92 = load ptr, ptr %9, align 8
  %93 = load i64, ptr %6, align 8
  %94 = load i32, ptr %7, align 4
  %95 = call ptr @MemoryContextAllocationFailure(ptr noundef %92, i64 noundef %93, i32 noundef %94)
  store ptr %95, ptr %4, align 8
  store i32 1, ptr %13, align 4
  br label %108

96:                                               ; preds = %81
  br label %97

97:                                               ; preds = %96
  br label %98

98:                                               ; preds = %97
  br label %99

99:                                               ; preds = %98
  br label %100

100:                                              ; preds = %99
  br label %101

101:                                              ; preds = %100
  br label %102

102:                                              ; preds = %101
  %103 = load ptr, ptr %11, align 8
  %104 = load ptr, ptr %5, align 8
  %105 = load i64, ptr %12, align 8
  call void @llvm.memcpy.p0.p0.i64(ptr align 1 %103, ptr align 1 %104, i64 %105, i1 false)
  %106 = load ptr, ptr %5, align 8
  call void @GenerationFree(ptr noundef %106)
  %107 = load ptr, ptr %11, align 8
  store ptr %107, ptr %4, align 8
  store i32 1, ptr %13, align 4
  br label %108

108:                                              ; preds = %102, %91, %79
  call void @llvm.lifetime.end.p0(i64 8, ptr %12) #12
  call void @llvm.lifetime.end.p0(i64 8, ptr %11) #12
  call void @llvm.lifetime.end.p0(i64 8, ptr %10) #12
  call void @llvm.lifetime.end.p0(i64 8, ptr %9) #12
  call void @llvm.lifetime.end.p0(i64 8, ptr %8) #12
  %109 = load ptr, ptr %4, align 8
  ret ptr %109
}