; Function Attrs: nounwind uwtable
define dso_local ptr @GenerationRealloc(ptr noundef %0, i64 noundef %1, i32 noundef %2) local_unnamed_addr #0 {
  %4 = getelementptr inbounds i8, ptr %0, i64 -8
  %.val = load i64, ptr %4, align 8
  %5 = and i64 %.val, 16
  %.not34 = icmp eq i64 %5, 0
  br i1 %.not34, label %22, label %6

6:                                                ; preds = %3
  %7 = getelementptr inbounds i8, ptr %0, i64 -64
  %8 = getelementptr inbounds i8, ptr %0, i64 -48
  %9 = load ptr, ptr %8, align 8
  %.not = icmp eq ptr %9, null
  br i1 %.not, label %13, label %10

10:                                               ; preds = %6
  %11 = load i32, ptr %9, align 4
  %12 = icmp eq i32 %11, 474
  br i1 %12, label %16, label %13

13:                                               ; preds = %10, %6
  %14 = tail call zeroext i1 @errstart_cold(i32 noundef 21, ptr noundef null) #16
  tail call void @llvm.assume(i1 %14)
  %15 = tail call i32 (ptr, ...) @errmsg_internal(ptr noundef nonnull @.str.3, ptr noundef nonnull %4) #15
  tail call void @errfinish(ptr noundef nonnull @.str.2, i32 noundef 820, ptr noundef nonnull @__func__.GenerationRealloc) #15
  unreachable

16:                                               ; preds = %10
  %17 = getelementptr inbounds i8, ptr %0, i64 -16
  %18 = load ptr, ptr %17, align 8
  %19 = ptrtoint ptr %18 to i64
  %20 = ptrtoint ptr %0 to i64
  %21 = sub i64 %19, %20
  br label %29

22:                                               ; preds = %3
  %23 = lshr i64 %.val, 34
  %24 = and i64 %23, 1073741822
  %25 = sub nsw i64 0, %24
  %26 = getelementptr inbounds i8, ptr %4, i64 %25
  %27 = lshr i64 %.val, 5
  %28 = and i64 %27, 1073741823
  br label %29

29:                                               ; preds = %22, %16
  %.028 = phi ptr [ %7, %16 ], [ %26, %22 ]
  %.0 = phi i64 [ %21, %16 ], [ %28, %22 ]
  %30 = getelementptr inbounds nuw i8, ptr %.028, i64 16
  %31 = load ptr, ptr %30, align 8
  %.not32 = icmp ult i64 %.0, %1
  br i1 %.not32, label %32, label %38

32:                                               ; preds = %29
  %33 = tail call ptr @GenerationAlloc(ptr noundef %31, i64 noundef %1, i32 noundef %2)
  %34 = icmp eq ptr %33, null
  br i1 %34, label %35, label %37

35:                                               ; preds = %32
  %36 = tail call ptr @MemoryContextAllocationFailure(ptr noundef %31, i64 noundef %1, i32 noundef %2) #15
  br label %38

37:                                               ; preds = %32
  tail call void @llvm.memcpy.p0.p0.i64(ptr nonnull align 1 %33, ptr nonnull align 1 %0, i64 %.0, i1 false)
  tail call void @GenerationFree(ptr noundef nonnull %0)
  br label %38

38:                                               ; preds = %29, %37, %35
  %.027 = phi ptr [ %36, %35 ], [ %33, %37 ], [ %0, %29 ]
  ret ptr %.027
}